; ModuleID = '15/320.c'
source_filename = "15/320.c"
target datalayout = "e-m:e-p270:32:32-p271:32:32-p272:64:64-i64:64-f80:128-n8:16:32:64-S128"
target triple = "x86_64-pc-linux-gnu"

@.str = private unnamed_addr constant [3 x i8] c"%d\00", align 1

; Function Attrs: noinline nounwind uwtable
define dso_local i32 @main() #0 {
  %1 = alloca i32, align 4
  %2 = alloca i32, align 4
  %3 = alloca [1000 x i32], align 16
  %4 = alloca i32, align 4
  %5 = alloca i32, align 4
  %6 = alloca i32, align 4
  %7 = alloca i32, align 4
  %8 = alloca i32, align 4
  %9 = alloca i32, align 4
  %10 = alloca i32, align 4
  %11 = alloca i32, align 4
  store i32 0, i32* %1, align 4
  store i32 0, i32* %7, align 4
  %12 = call i32 (i8*, ...) @__isoc99_scanf(i8* getelementptr inbounds ([3 x i8], [3 x i8]* @.str, i64 0, i64 0), i32* %2)
  store i32 1, i32* %4, align 4
  br label %13

13:                                               ; preds = %92, %0
  %14 = load i32, i32* %4, align 4
  %15 = load i32, i32* %2, align 4
  %16 = icmp sle i32 %14, %15
  br i1 %16, label %17, label %95

17:                                               ; preds = %13
  store i32 1, i32* %5, align 4
  br label %18

18:                                               ; preds = %27, %17
  %19 = load i32, i32* %5, align 4
  %20 = load i32, i32* %2, align 4
  %21 = icmp sle i32 %19, %20
  br i1 %21, label %22, label %30

22:                                               ; preds = %18
  %23 = load i32, i32* %5, align 4
  %24 = sext i32 %23 to i64
  %25 = getelementptr inbounds [1000 x i32], [1000 x i32]* %3, i64 0, i64 %24
  %26 = call i32 (i8*, ...) @__isoc99_scanf(i8* getelementptr inbounds ([3 x i8], [3 x i8]* @.str, i64 0, i64 0), i32* %25)
  br label %27

27:                                               ; preds = %22
  %28 = load i32, i32* %5, align 4
  %29 = add nsw i32 %28, 1
  store i32 %29, i32* %5, align 4
  br label %18

30:                                               ; preds = %18
  %31 = load i32, i32* %7, align 4
  %32 = icmp eq i32 %31, 0
  br i1 %32, label %33, label %75

33:                                               ; preds = %30
  store i32 1, i32* %5, align 4
  br label %34

34:                                               ; preds = %71, %33
  %35 = load i32, i32* %5, align 4
  %36 = load i32, i32* %2, align 4
  %37 = icmp sle i32 %35, %36
  br i1 %37, label %38, label %74

38:                                               ; preds = %34
  %39 = load i32, i32* %5, align 4
  %40 = sext i32 %39 to i64
  %41 = getelementptr inbounds [1000 x i32], [1000 x i32]* %3, i64 0, i64 %40
  %42 = load i32, i32* %41, align 4
  %43 = icmp eq i32 %42, 0
  br i1 %43, label %44, label %66

44:                                               ; preds = %38
  %45 = load i32, i32* %4, align 4
  store i32 %45, i32* %9, align 4
  %46 = load i32, i32* %5, align 4
  store i32 %46, i32* %7, align 4
  %47 = load i32, i32* %5, align 4
  store i32 %47, i32* %6, align 4
  br label %48

48:                                               ; preds = %62, %44
  %49 = load i32, i32* %6, align 4
  %50 = load i32, i32* %2, align 4
  %51 = icmp sle i32 %49, %50
  br i1 %51, label %52, label %65

52:                                               ; preds = %48
  %53 = load i32, i32* %6, align 4
  %54 = sext i32 %53 to i64
  %55 = getelementptr inbounds [1000 x i32], [1000 x i32]* %3, i64 0, i64 %54
  %56 = load i32, i32* %55, align 4
  %57 = icmp ne i32 %56, 0
  br i1 %57, label %58, label %61

58:                                               ; preds = %52
  %59 = load i32, i32* %6, align 4
  %60 = sub nsw i32 %59, 1
  store i32 %60, i32* %8, align 4
  br label %65

61:                                               ; preds = %52
  br label %62

62:                                               ; preds = %61
  %63 = load i32, i32* %6, align 4
  %64 = add nsw i32 %63, 1
  store i32 %64, i32* %6, align 4
  br label %48

65:                                               ; preds = %58, %48
  br label %66

66:                                               ; preds = %65, %38
  %67 = load i32, i32* %7, align 4
  %68 = icmp ne i32 %67, 0
  br i1 %68, label %69, label %70

69:                                               ; preds = %66
  br label %74

70:                                               ; preds = %66
  br label %71

71:                                               ; preds = %70
  %72 = load i32, i32* %5, align 4
  %73 = add nsw i32 %72, 1
  store i32 %73, i32* %5, align 4
  br label %34

74:                                               ; preds = %69, %34
  br label %91

75:                                               ; preds = %30
  %76 = load i32, i32* %7, align 4
  %77 = sext i32 %76 to i64
  %78 = getelementptr inbounds [1000 x i32], [1000 x i32]* %3, i64 0, i64 %77
  %79 = load i32, i32* %78, align 4
  %80 = icmp eq i32 %79, 0
  br i1 %80, label %81, label %90

81:                                               ; preds = %75
  %82 = load i32, i32* %7, align 4
  %83 = add nsw i32 %82, 1
  %84 = sext i32 %83 to i64
  %85 = getelementptr inbounds [1000 x i32], [1000 x i32]* %3, i64 0, i64 %84
  %86 = load i32, i32* %85, align 4
  %87 = icmp eq i32 %86, 0
  br i1 %87, label %88, label %90

88:                                               ; preds = %81
  %89 = load i32, i32* %4, align 4
  store i32 %89, i32* %10, align 4
  br label %90

90:                                               ; preds = %88, %81, %75
  br label %91

91:                                               ; preds = %90, %74
  br label %92

92:                                               ; preds = %91
  %93 = load i32, i32* %4, align 4
  %94 = add nsw i32 %93, 1
  store i32 %94, i32* %4, align 4
  br label %13

95:                                               ; preds = %13
  %96 = load i32, i32* %8, align 4
  %97 = load i32, i32* %7, align 4
  %98 = sub nsw i32 %96, %97
  %99 = sub nsw i32 %98, 1
  %100 = load i32, i32* %10, align 4
  %101 = load i32, i32* %9, align 4
  %102 = sub nsw i32 %100, %101
  %103 = sub nsw i32 %102, 1
  %104 = mul nsw i32 %99, %103
  store i32 %104, i32* %11, align 4
  %105 = load i32, i32* %11, align 4
  %106 = call i32 (i8*, ...) @printf(i8* getelementptr inbounds ([3 x i8], [3 x i8]* @.str, i64 0, i64 0), i32 %105)
  ret i32 0
}

declare dso_local i32 @__isoc99_scanf(i8*, ...) #1

declare dso_local i32 @printf(i8*, ...) #1


!llvm.module.flags = !{!0}
!llvm.ident = !{!1}

!0 = !{i32 1, !"wchar_size", i32 4}
!1 = !{!"clang version 10.0.0-4ubuntu1 "}
